; Function Attrs: mustprogress sspstrong uwtable
define void @_ZN4FLAC8Metadata13VorbisComment5EntryC2EPKcS4_(ptr nocapture noundef nonnull align 8 dereferenceable(60) %this, ptr noundef %field_name, ptr noundef %field_value) unnamed_addr #0 align 2 {
entry:
  store ptr getelementptr inbounds ({ [5 x ptr] }, ptr @_ZTVN4FLAC8Metadata13VorbisComment5EntryE, i64 0, i32 0, i64 2), ptr %this, align 8
  %is_valid_ = getelementptr inbounds i8, ptr %this, i64 8
  %entry_ = getelementptr inbounds i8, ptr %this, i64 16
  %field_value_ = getelementptr inbounds i8, ptr %this, i64 48
  %field_value_length_ = getelementptr inbounds i8, ptr %this, i64 56
  store i64 0, ptr %entry_, align 8
  store i8 1, ptr %is_valid_, align 8
  %entry3.i = getelementptr inbounds i8, ptr %this, i64 24
  store ptr null, ptr %field_value_, align 8
  store i32 0, ptr %field_value_length_, align 8
  tail call void @llvm.memset.p0.i64(ptr noundef nonnull align 8 dereferenceable(20) %entry3.i, i8 0, i64 20, i1 false)
  tail call void @_ZN4FLAC8Metadata13VorbisComment5Entry9constructEPKcS4_(ptr noundef nonnull align 8 dereferenceable(60) %this, ptr noundef %field_name, ptr noundef %field_value)
  ret void
}